; Function Attrs: mustprogress nounwind uwtable
define dso_local ptr @_ZNK4node6worker6Worker17GetResourceLimitsEPN2v87IsolateE(ptr nocapture noundef nonnull readonly align 8 dereferenceable(392) %this, ptr noundef %isolate) local_unnamed_addr #3 align 2 {
entry:
  %call = tail call ptr @_ZN2v811ArrayBuffer3NewEPNS_7IsolateEm(ptr noundef %isolate, i64 noundef 32) #23
  %call5 = tail call noundef ptr @_ZNK2v811ArrayBuffer4DataEv(ptr noundef nonnull align 1 dereferenceable(1) %call) #23
  %resource_limits_ = getelementptr inbounds i8, ptr %this, i64 296
  tail call void @llvm.memcpy.p0.p0.i64(ptr noundef nonnull align 1 dereferenceable(32) %call5, ptr noundef nonnull align 8 dereferenceable(32) %resource_limits_, i64 32, i1 false)
  %call9 = tail call ptr @_ZN2v812Float64Array3NewENS_5LocalINS_11ArrayBufferEEEmm(ptr nonnull %call, i64 noundef 0, i64 noundef 4) #23
  ret ptr %call9
}